; Function Attrs: inlinehint mustprogress ssp uwtable
define internal fastcc void @"_ZZZN6open3d1t2io21ReadPointCloudFromPLYERKNSt7__cxx1112basic_stringIcSt11char_traitsIcESaIcEEERNS0_8geometry10PointCloudERKNS_2io20ReadPointCloudOptionEENK3$_0clEvENKUlvE7_clEv"(ptr noundef nonnull readonly align 8 captures(none) dereferenceable(48) %0) unnamed_addr #15 align 2 {
  %2 = getelementptr inbounds nuw i8, ptr %0, i64 8
  %3 = load ptr, ptr %2, align 8, !tbaa !794
  %4 = load ptr, ptr %3, align 8, !tbaa !42
  %5 = getelementptr inbounds nuw i8, ptr %0, i64 16
  %6 = load ptr, ptr %5, align 8, !tbaa !796
  %7 = load ptr, ptr %6, align 8, !tbaa !44
  %8 = getelementptr inbounds nuw i8, ptr %0, i64 24
  %9 = load ptr, ptr %8, align 8, !tbaa !797
  %10 = load ptr, ptr %9, align 8, !tbaa !44
  %11 = getelementptr inbounds nuw i8, ptr %0, i64 32
  %12 = load ptr, ptr %11, align 8, !tbaa !798
  %13 = getelementptr inbounds nuw i8, ptr %0, i64 40
  %14 = load ptr, ptr %13, align 8, !tbaa !799
  %15 = load i64, ptr %14, align 8, !tbaa !45
  %16 = tail call i64 @ply_set_read_cb(ptr noundef %4, ptr noundef %7, ptr noundef %10, ptr noundef nonnull @_ZN6open3d1t2io12_GLOBAL__N_121ReadAttributeCallbackIjEEiP15t_ply_argument_, ptr noundef %12, i64 noundef %15)
  %17 = load ptr, ptr %0, align 8, !tbaa !800
  store i64 %16, ptr %17, align 8, !tbaa !45
  ret void
}